V) \u0423\u0442\u044e\u0433 \u043e\u0447\u0435\u043d\u044c \u043c\u043e\u0449\u043d\u044b\u0439, \u043f\u0440\u043e\u0433\u043b\u0430\u0436\u0438\u0432\u0430\u0435\u0442 \u0434\u0430\u0436\u0435 \u043f\u0435\u0440\u0435\u0441\u0443\u0448\u0435\u043d\u043d\u043e\u0435 \u0431\u0435\u043b\u044c\u0435 \u0441 \u043f\u0435\u0440\u0432\u043e\u0433\u043e \u0440\u0430\u0437\u0430
p0
.