(lp0
S'http://irecommend.ru/content/otlichnoe-priobretenie-prostenko-i-so-vkusom-podrobnoe-opisanie-i-fotografii'
p1
aS'http://irecommend.ru/content/utyug-tsena-sootvetstvuet-kachestvu'
p2
aS'http://irecommend.ru/content/otlichnyi-nedorogoi-utyug-s-keramicheskim-pokrytiem'
p3
aS'http://irecommend.ru/content/pomoshchnik-ili-vreditel'
p4
aS'http://irecommend.ru/content/khoroshii-utyug-osobenno-esli-pravilno-polzueshsya'
p5
aS'http://irecommend.ru/content/berezhnyi-ukhod-0'
p6
aS'http://irecommend.ru/content/khrupkii-korpus'
p7
aS'http://irecommend.ru/content/gladit-sam'
p8
aS'http://irecommend.ru/content/frantsuzskoe-kachestvo-0'
p9
aS'http://irecommend.ru/content/ne-pozhaleete-12'
p10
aS'http://irecommend.ru/content/khoroshii-utyug-ekonom-klassa'
p11
aS'http://irecommend.ru/content/strelki-na-bryukakh-dovolny-i-dovolna-ya'
p12
aS'http://irecommend.ru/content/teper-ya-glazhu-rubashki-muzhu-s-udovolstviem'
p13
aS'http://irecommend.ru/content/relaks-vo-vremya-glazhki'
p14
aS'http://irecommend.ru/content/khorosho-gladit-no-est-nedostatok'
p15
aS'http://irecommend.ru/content/optimalnyi-vybor-14'
p16
aS'http://irecommend.ru/content/polzuyus-1-godfoto'
p17
aS'http://irecommend.ru/content/otlichnyi-pomoshchnik-96'
p18
aS'http://irecommend.ru/content/otlichnyi-pomoshchnik-khoroshei-khozyaiki'
p19
aS'http://irecommend.ru/content/gladte-s-udovolstviem-1'
p20
aS'http://irecommend.ru/content/moi-nezamenimyi-pomoshchnik-46'
p21
aS'http://irecommend.ru/content/otlichnyi-utyug-26'
p22
aS'http://irecommend.ru/content/polzuyus-mesyats-nedostatkov-ne-zametila'
p23
aS'http://irecommend.ru/content/odno-udovolstvie-27'
p24
aS'http://irecommend.ru/content/ozhidala-chut-bolshego'
p25
aS'http://irecommend.ru/content/utyug-philips-gc-3320-sluzhit-uzhe-5-god'
p26
aS'http://irecommend.ru/content/etot-utyug-ya-vam-rekomenduyu-kupit'
p27
aS'http://irecommend.ru/content/otlichnyi-utyug-9'
p28
aS'http://irecommend.ru/content/otlichnyi-utyug-vsem-rekomenduyu'
p29
aS'http://irecommend.ru/content/utyug-philips-gc-3320-nadezhnyi-pomoshchnik-vyvody-posle-3kh-let-ispolzovaniya'
p30
aS'http://irecommend.ru/content/utyug-philips-gc-3320-0'
p31
aS'http://irecommend.ru/content/pokupala-v-2007-godu-ochen-dovolna-i-seichas-vyborom-dovolna'
p32
aS'http://irecommend.ru/content/opyt-ego-ispolzovaniya-poka-nebolshoi-no-utyug-nravitsya'
p33
aS'http://irecommend.ru/content/za-tri-goda-nedostatkov-ne-obnaruzhila'
p34
aS'http://irecommend.ru/content/ekonomit-vremya-khozyaiki'
p35
aS'http://irecommend.ru/content/otlichnyi-500'
p36
aS'http://irecommend.ru/content/so-svoei-rabotoi-spravlyaetsya-na-otlichno-foto-utyuga'
p37
aS'http://irecommend.ru/content/dovolna-105'
p38
aS'http://irecommend.ru/content/utyug-bosch-ili-kak-sovmestit-glazhku-i-fitnes-mnogo-foto'
p39
aS'http://irecommend.ru/content/utyug-bosch-tda5028010-bylo-mnogo-somnenii-no-ostalas-dovolna'
p40
aS'http://irecommend.ru/content/za-kakie-zhe-grekhi-ty-mne-dostalsya'
p41
aS'http://irecommend.ru/content/tsena-kachestvo-sootvetsvueti'
p42
aS'http://irecommend.ru/content/spontannyi-vybor-o-kotorom-ne-zhaleyu-utyug-rolsen-nash-lyubimets-sredi-bytovoi-tekhniki'
p43
aS'http://irecommend.ru/content/otlichnyi-utyug-kakaya-zhe-podoshva-utyuga-luchshe'
p44
aS'http://irecommend.ru/content/khoroshii-no-kapriznyi-k-vode'
p45
aS'http://irecommend.ru/content/utyug-khoroshego-kachestva-samoe-vazhnoe-khorosho-gladit'
p46
aS'http://irecommend.ru/content/philips-gc4870-moshchnyi-utyug-vyshe-vsyakikh-pokhval-gladit-parit-na-ura-podrobnyi-foto-otz'
p47
aS'http://irecommend.ru/content/ya-polyubila-gladit-blagodarya-etomu-utyugu-podrobnyi-otzyv-posle-2kh-let-ispolzovaniya-mnog'
p48
aS'http://irecommend.ru/node/2218176'
p49
aS'http://irecommend.ru/content/korichnevyi-krasavets'
p50
aS'http://irecommend.ru/content/zver-v-svoem-dele-mnogo-foto'
p51
aS'http://irecommend.ru/content/otlichno-1067'
p52
aS'http://irecommend.ru/content/khorosho-gladit-chto-eshche-mozhno-ozhidat-ot-utyuga'
p53
aS'http://irecommend.ru/content/etot-utyug-stoit-svoikh-deneg'
p54
aS'http://irecommend.ru/content/super-utyug-sovetuyu'
p55
aS'http://irecommend.ru/content/khozhu-v-vyglazhennoi-odezhde-bolshe-chego-ot-utyuga-trebovat'
p56
aS'http://irecommend.ru/content/superskaya-tekhnika'
p57
aS'http://irecommend.ru/content/stilnoe-i-moshchnoe-kachestvo'
p58
aS'http://irecommend.ru/content/prosto-ne-gladit'
p59
a.