(lp0
S'http://irecommend.ru/content/utyug-tefal-virtuo-10'
p1
aS'http://irecommend.ru/content/utyug-redmond-ri-c225'
p2
aS'http://irecommend.ru/content/utyug-tefal-supergliss-30'
p3
aS'http://irecommend.ru/content/utyug-tefal-supergliss-fv-3830'
p4
aS'http://irecommend.ru/content/utyug-philips-gc-3320'
p5
aS'http://irecommend.ru/content/utyug-bosch-tda-5028010-sensixx-x-da-50'
p6
aS'http://irecommend.ru/content/utyug-rolsen-rn3240-innet'
p7
aS'http://irecommend.ru/content/utyug-braun-ts-755'
p8
aS'http://irecommend.ru/content/utyug-bosch-tda2315-tsv-belyi-zelenyi-utyug-s-parouvlazhneniem'
p9
aS'http://irecommend.ru/content/utyug-philips-gc4870'
p10
aS'http://irecommend.ru/content/utyug-braun-utyug-braun-easystyle-2040'
p11
aS'http://irecommend.ru/content/utyug-marta-utyug-mt-1101'
p12
aS'http://irecommend.ru/content/utyug-bosch-tda503011p-sensixxx-da50'
p13
aS'http://irecommend.ru/content/utyug-marta-mt-1104'
p14
aS'http://irecommend.ru/content/utyug-braun-texstyle-3-340'
p15
aS'http://irecommend.ru/content/utyug-panasonic-ni-w920avtw'
p16
aS'http://irecommend.ru/content/utyug-tefal-fv3320'
p17
aS'http://irecommend.ru/content/utyug-bosch-tda-102411c'
p18
aS'http://irecommend.ru/content/utyug-tefal-prima-2350'
p19
aS'http://irecommend.ru/content/utyug-philips-gc356902'
p20
aS'http://irecommend.ru/content/utyug-bosch-tda-703021a-sensixx-x-da70-antishine'
p21
aS'http://irecommend.ru/content/utyug-arc-2800a'
p22
aS'http://irecommend.ru/content/utyug-tefal-1770-ultragliss-diffusion-70'
p23
aS'http://irecommend.ru/content/utyug-supra-2740'
p24
aS'http://irecommend.ru/content/utyug-maxwell-mw-3055-b'
p25
aS'http://irecommend.ru/content/utyug-tefal-fv5377'
p26
aS'http://irecommend.ru/content/utyug-philips-gc-1820'
p27
aS'http://irecommend.ru/content/utyug-philips-azur-hi570'
p28
aS'http://irecommend.ru/content/utyug-braun-ts-535-tp'
p29
aS'http://irecommend.ru/content/utyug-scarlett-moi-super-scarlett-sc-1334s'
p30
aS'http://irecommend.ru/content/utyug-philips-philips-gc-4860'
p31
aS'http://irecommend.ru/content/utyug-galaxy-gl-6119'
p32
aS'http://irecommend.ru/content/utyug-braun-texstyle-3-320-artikul-1067912'
p33
aS'http://irecommend.ru/content/utyug-bosch-tda-2360'
p34
aS'http://irecommend.ru/content/utyug-bosch-tda-2315'
p35
aS'http://irecommend.ru/content/utyug-philips-gc-2045'
p36
aS'http://irecommend.ru/content/utyug-tefal-fv5350'
p37
aS'http://irecommend.ru/content/utyug-bosch-sensixx-b1-quick-full-tda-2680'
p38
aS'http://irecommend.ru/content/utyug-vitek-vt-1245-dbpgift'
p39
aS'http://irecommend.ru/content/utyug-elenberg-ysh-3007'
p40
aS'http://irecommend.ru/content/utyug-tefal-power-jeans-400'
p41
aS'http://irecommend.ru/content/utyug-irit-ir-2214'
p42
aS'http://irecommend.ru/content/utyug-braun-texstyle-7-ts-785-stp'
p43
aS'http://irecommend.ru/content/utyug-marta-mt-1127'
p44
aS'http://irecommend.ru/content/utyug-viconte-vc-436'
p45
aS'http://irecommend.ru/content/utyug-vitek-vt-1229-cl'
p46
aS'http://irecommend.ru/content/utyug-zelmer-28z021'
p47
aS'http://irecommend.ru/content/utyug-bosch-sensixxx-da50'
p48
aS'http://irecommend.ru/content/utyug-vitek-vt-1206'
p49
aS'http://irecommend.ru/content/utyug-tefal-fv4631'
p50
aS'http://irecommend.ru/content/utyug-philips-gc4425'
p51
aS'http://irecommend.ru/content/utyug-tefal-supergliss-fv-3810'
p52
aS'http://irecommend.ru/content/utyug-vitek-dorozhnyi-vt-1227'
p53
aS'http://irecommend.ru/content/utyug-philips-gc2910'
p54
aS'http://irecommend.ru/content/utyug-philips-3540-easy-care'
p55
aS'http://irecommend.ru/content/utyug-polaris-utyug-polaris-pir-2469k'
p56
aS'http://irecommend.ru/content/utyug-deloni-dh-507'
p57
aS'http://irecommend.ru/content/utyug-scarlett-sc-131s'
p58
aS'http://irecommend.ru/content/utyug-vitek-vt-1238-vt'
p59
aS'http://irecommend.ru/content/utyug-tefal-prima-2352'
p60
aS'http://irecommend.ru/content/utyug-philips-gc-359302'
p61
aS'http://irecommend.ru/content/utyug-vitek-vt-1210'
p62
aS'http://irecommend.ru/content/utyug-scarlett-dorozhnyi-utyug-scarlett-sc-1135s-whiteblue'
p63
aS'http://irecommend.ru/content/utyug-tefal-fv-5350'
p64
aS'http://irecommend.ru/content/utyug-tefal-ultragliss-fv4631e0'
p65
aS'http://irecommend.ru/content/utyug-sinbo-sinbo-ssi-2862'
p66
aS'http://irecommend.ru/content/utyug-tefal-easygliss-fv3930'
p67
aS'http://irecommend.ru/content/utyug-bosch-bosch-sensor-secure'
p68
aS'http://irecommend.ru/content/utyug-philips-easy-care-gc3240'
p69
aS'http://irecommend.ru/content/utyug-orion-ori-020'
p70
aS'http://irecommend.ru/content/utyug-polaris-pir-2454'
p71
aS'http://irecommend.ru/content/utyug-tefal-freemove-fv9920-e0'
p72
aS'http://irecommend.ru/content/utyug-panasonic-ni-e410t'
p73
aS'http://irecommend.ru/content/utyug-panasonic-ni-e500t'
p74
aS'http://irecommend.ru/content/utyug-braun-texstyle-5'
p75
aS'http://irecommend.ru/content/utyug-braun-free-style-510si-6261'
p76
aS'http://irecommend.ru/content/utyug-polaris-pir-2472'
p77
aS'http://irecommend.ru/content/utyug-philips-philips-gc-2920'
p78
aS'http://irecommend.ru/content/utyug-bosch-colour-edition-sensixx-cosmo-tda-2435'
p79
aS'http://irecommend.ru/content/utyug-braun-texstyle'
p80
aS'http://irecommend.ru/content/utyug-philips-gc204620'
p81
aS'http://irecommend.ru/content/utyug-philips-gc-4422'
p82
aS'http://irecommend.ru/content/utyug-magnit-rmi-1394'
p83
aS'http://irecommend.ru/content/utyug-bork-utyug-bork-i600'
p84
aS'http://irecommend.ru/content/utyug-bosch-tda-502412e'
p85
aS'http://irecommend.ru/content/utyug-oriflame-mnogofunktsionalnyi-dorozhnyi-parovoi'
p86
aS'http://irecommend.ru/content/utyug-braun-texstyle-7-ts-745a'
p87
aS'http://irecommend.ru/content/utyug-philips-azur-gc-4845'
p88
aS'http://irecommend.ru/content/utyug-tefal-fv-5333'
p89
aS'http://irecommend.ru/content/utyug-philips-gc4510'
p90
aS'http://irecommend.ru/content/utyug-vitek-vt-1207'
p91
aS'http://irecommend.ru/content/utyug-scarlett-sc-1133s-david'
p92
aS'http://irecommend.ru/content/utyug-philips-gc-3551'
p93
aS'http://irecommend.ru/content/utyug-vitek-vt-1228b'
p94
aS'http://irecommend.ru/content/utyug-philips-gc381020'
p95
aS'http://irecommend.ru/content/utyug-supra-2700'
p96
aS'http://irecommend.ru/content/utyug-tefal-supergliss-fv3840'
p97
aS'http://irecommend.ru/content/utyug-rowenta-dm-142'
p98
aS'http://irecommend.ru/content/utyug-gorenje-steamy-sit-1800-eb'
p99
aS'http://irecommend.ru/content/utyug-vitek-vt-1209'
p100
aS'http://irecommend.ru/content/utyug-scarlett-sc-1130s'
p101
aS'http://irecommend.ru/content/utyug-panasonic-utyug-panasonic-ni-e210t'
p102
aS'http://irecommend.ru/content/utyug-ladomir-54'
p103
aS'http://irecommend.ru/content/utyug-polaris-pir-2466k'
p104
aS'http://irecommend.ru/content/utyug-tefal-prima-fv2325'
p105
aS'http://irecommend.ru/content/utyug-philips-gc-4420'
p106
aS'http://irecommend.ru/content/utyug-philips-gc-3720'
p107
aS'http://irecommend.ru/content/utyug-tefal-fv5356'
p108
aS'http://irecommend.ru/content/utyug-rowenta-da-1510-dorozhnyi'
p109
aS'http://irecommend.ru/content/utyug-philips-gc-3560-easy-care'
p110
aS'http://irecommend.ru/content/utyug-marta-natty'
p111
aS'http://irecommend.ru/content/utyug-zelmer-28z019-0'
p112
aS'http://irecommend.ru/content/utyug-braun-texstyle-7-780si-18896mn'
p113
aS'http://irecommend.ru/content/utyug-vitek-vt-1201-cr'
p114
aS'http://irecommend.ru/content/utyug-philips-gc-1900-series'
p115
aS'http://irecommend.ru/content/utyug-philips-gc-4400'
p116
aS'http://irecommend.ru/content/utyug-bomann-db-774'
p117
aS'http://irecommend.ru/content/utyug-philips-gc-4410'
p118
aS'http://irecommend.ru/content/utyug-philips-azur-performer-gc380160'
p119
aS'http://irecommend.ru/content/utyug-braun-freestyle'
p120
aS'http://irecommend.ru/content/utyug-tefal-supergliss-3825'
p121
aS'http://irecommend.ru/content/utyug-philips-gc3100'
p122
aS'http://irecommend.ru/content/utyug-ves-1616-dorozhnyi'
p123
aS'http://irecommend.ru/content/utyug-leran-leran-cei-2465'
p124
aS'http://irecommend.ru/content/utyug-binatone-si-2000'
p125
aS'http://irecommend.ru/content/utyug-tefal-fv4887'
p126
aS'http://irecommend.ru/content/utyug-atlanta-ath-487n'
p127
aS'http://irecommend.ru/content/utyug-braun-texstyle-730si17780'
p128
aS'http://irecommend.ru/content/utyug-magio-mg-138'
p129
aS'http://irecommend.ru/content/utyug-philips-gc-3560'
p130
aS'http://irecommend.ru/content/utyug-tefal-fv-1325'
p131
aS'http://irecommend.ru/content/utyug-braun-si-18895'
p132
aS'http://irecommend.ru/content/utyug-tefal-fv-9340-program-8-power-jeans-400'
p133
aS'http://irecommend.ru/content/utyug-tefal-ultragliss-4650'
p134
aS'http://irecommend.ru/content/utyug-saturn-saturn-st-cc7136'
p135
aS'http://irecommend.ru/content/utyug-panasonic-ni-e300t'
p136
aS'http://irecommend.ru/content/utyug-russel-hobbs-18681-56'
p137
aS'http://irecommend.ru/content/utyug-philips-mistral-2100'
p138
aS'http://irecommend.ru/content/utyug-qilive-steam-iron-q5280'
p139
aS'http://irecommend.ru/content/utyug-vitek-parovoi-utyug-vt-1203-gy'
p140
aS'http://irecommend.ru/content/utyug-tefal-ultimate-anticalc-fv9650e0'
p141
aS'http://irecommend.ru/content/utyug-kambrook-parovoi-aki401'
p142
aS'http://irecommend.ru/content/utyug-philips-gc4415'
p143
aS'http://irecommend.ru/content/utyug-energy-en-313'
p144
aS'http://irecommend.ru/content/utyug-tefal-fv-9640'
p145
aS'http://irecommend.ru/content/utyug-philips-gc3540'
p146
aS'http://irecommend.ru/content/utyug-delonghi-fxc-21'
p147
aS'http://irecommend.ru/content/utyug-philips-azur-steamglide-gc-4852-2600-vt'
p148
aS'http://irecommend.ru/content/utyug-ladomir-24'
p149
aS'http://irecommend.ru/content/utyug-tefal-fv-5378'
p150
aS'http://irecommend.ru/content/utyug-bork-i510'
p151
aS'http://irecommend.ru/content/utyug-tefal-fv4680'
p152
aS'http://irecommend.ru/content/utyug-scarlett-sc-si30k03'
p153
aS'http://irecommend.ru/content/utyug-rowenta-eco-intelligence-dw6010'
p154
aS'http://irecommend.ru/content/utyug-travelsteamer'
p155
aS'http://irecommend.ru/content/utyug-philips-elance-3100'
p156
aS'http://irecommend.ru/content/utyug-philips-gc-451220'
p157
aS'http://irecommend.ru/content/utyug-zelmer-28z020'
p158
aS'http://irecommend.ru/content/utyug-braun-texstyle-515'
p159
aS'http://irecommend.ru/content/utyug-philips-easyspeed-gc1028'
p160
aS'http://irecommend.ru/content/utyug-rowenta-focus-dw-5020'
p161
aS'http://irecommend.ru/content/utyug-tefal-fv4590'
p162
aS'http://irecommend.ru/content/utyug-philips-utyug-philips-gc4440'
p163
aS'http://irecommend.ru/content/utyug-tefal-freemove-fv9915'
p164
aS'http://irecommend.ru/content/utyug-arhia-as240-789'
p165
aS'http://irecommend.ru/content/utyug-maxwell-mw-3012-dorozhnyi'
p166
aS'http://irecommend.ru/content/utyug-braun-si-18890'
p167
aS'http://irecommend.ru/content/utyug-polaris-pir-2059k-harmony'
p168
aS'http://irecommend.ru/content/utyug-philips-gc-2510'
p169
aS'http://irecommend.ru/content/utyug-kambrook-aki400-0'
p170
aS'http://irecommend.ru/content/utyug-tefal-supergliss-fv-3510'
p171
aS'http://irecommend.ru/content/utyug-bosch-tda-2630'
p172
aS'http://irecommend.ru/content/utyug-tefal-avantis-80'
p173
aS'http://irecommend.ru/content/utyug-tefal-supergliss-10'
p174
aS'http://irecommend.ru/content/utyug-philips-gc-4412'
p175
aS'http://irecommend.ru/content/utyug-philips-azur-gc-4850'
p176
aS'http://irecommend.ru/content/utyug-tefal-prima-plus'
p177
aS'http://irecommend.ru/content/utyug-philips-gc-2965-powerlife'
p178
aS'http://irecommend.ru/content/utyug-philips-utyug-dlya-glazheniya-s-parom-gc-2930-powerlife'
p179
aS'http://irecommend.ru/content/utyug-eltron-model-el-101'
p180
aS'http://irecommend.ru/content/utyug-philips-gc-651-dorozhnyi'
p181
aS'http://irecommend.ru/content/utyug-centek-ct-2332-b'
p182
aS'http://irecommend.ru/content/utyug-redmond-ri-c208-purple-technique-2000'
p183
aS'http://irecommend.ru/content/utyug-bosch-tda7028210-sensixxx-da70-sensorsecure'
p184
aS'http://irecommend.ru/content/utyug-supra-9700'
p185
aS'http://irecommend.ru/content/utyug-braun-si-6595'
p186
aS'http://irecommend.ru/content/utyug-philips-gc-4430'
p187
aS'http://irecommend.ru/content/utyug-sakura-sa-3003r'
p188
aS'http://irecommend.ru/content/utyug-philips-gc-4411'
p189
aS'http://irecommend.ru/content/utyug-bomann-db-777-cb-white-violett'
p190
aS'http://irecommend.ru/content/utyug-maxwell-mw-3046'
p191
aS'http://irecommend.ru/content/utyug-philips-gc4430'
p192
aS'http://irecommend.ru/content/utyug-delta-des-2014'
p193
aS'http://irecommend.ru/content/utyug-zelmer-28z025-graphite'
p194
aS'http://irecommend.ru/content/utyug-zelmer-28z030'
p195
aS'http://irecommend.ru/content/utyug-bosch-tda-702821i'
p196
aS'http://irecommend.ru/content/utyug-delta-dl-802'
p197
aS'http://irecommend.ru/content/utyug-philips-gc-102630'
p198
aS'http://irecommend.ru/content/utyug-bosch-tda-3630'
p199
aS'http://irecommend.ru/content/utyug-tefal-fv-4350'
p200
a.