(lp0
S'http://irecommend.ru/content/sdelaet-protsess-glazhki-namnogo-proshche-bystree-i-effektivnee-mnogo-foto'
p1
aS'http://irecommend.ru/content/krasivyi-udobnyi-i-vypolnyaet-svoyu-rabotu-na-otlichno-no-est-i-nedostatki'
p2
aS'http://irecommend.ru/content/stilnyi-i-legkii-utyug'
p3
aS'http://irecommend.ru/content/funktsii-i-temp-i-antishine-prosto-super'
p4
aS'http://irecommend.ru/content/khoroshii-utyug-za-svoyu-tsenu'
p5
aS'http://irecommend.ru/content/utyug-ot-brenda-izvestnogo-svoimi-multivarkami-proverim-kachestvo-i-funktsionalnost-mnogo-fo'
p6
aS'http://irecommend.ru/content/khorosho-gladit'
p7
aS'http://irecommend.ru/content/otlichnyi-devais-no'
p8
aS'http://irecommend.ru/content/malenkii-da-udalenkii-pomoshchnik-v-bytu-foto-prilagaetsya'
p9
aS'http://irecommend.ru/content/deshevo-i-serdito-674'
p10
aS'http://irecommend.ru/content/khoroshii-byudzhetnyi-variant-utyuga'
p11
aS'http://irecommend.ru/content/malenkaya-mechta-kazhdoi-devushki'
p12
aS'http://irecommend.ru/content/dazhe-ochki-poteyut-kogda-gladish'
p13
aS'http://irecommend.ru/content/tefal-kak-vsegda-na-vysote-utyug-shikaren-fotosessiya-utyuga'
p14
aS'http://irecommend.ru/content/ne-stoit-svoikh-deneg-332'
p15
aS'http://irecommend.ru/content/khoroshii-utyug-i-domashnii-sposob-ego-ochistki-ot-nakipi'
p16
aS'http://irecommend.ru/content/s-takim-utyugom-ne-nuzhen-nikakoi-parogenerator'
p17
aS'http://irecommend.ru/content/luchshii-387'
p18
aS'http://irecommend.ru/content/spravitsya-s-lyubymi-skladkami'
p19
aS'http://irecommend.ru/content/nash-strashnenkii-dolgozhitel'
p20
aS'http://irecommend.ru/content/otlichnyi-utyug-s-parom-za-7-let-raboty-kak-novenkii'
p21
aS'http://irecommend.ru/content/vmeste-7-let-i-ni-razu-ne-razocharoval-eto-ne-pro-muzhchinu-eto-pro-utyug'
p22
aS'http://irecommend.ru/content/otlichnyi-utyug-0'
p23
aS'http://irecommend.ru/content/3-goda-v-ekspluatatsii'
p24
aS'http://irecommend.ru/content/utyug-ochen-khorosh-dlya-semi'
p25
aS'http://irecommend.ru/content/gladim-bez-provoda'
p26
aS'http://irecommend.ru/content/samyi-luchshii-utyug-v-mire'
p27
aS'http://irecommend.ru/content/otlichnyi-besprovodnoi-utyug'
p28
aS'http://irecommend.ru/content/ne-slushaite-prodavtsov-v-magazinakh'
p29
aS'http://irecommend.ru/content/byudzhetnyi-pomoshchnik-0'
p30
aS'http://irecommend.ru/content/darenomu-utyugu-na-podoshvu-ne-smotryat'
p31
aS'http://irecommend.ru/content/prigorevshaya-keramika-scarlett-sc-1334s'
p32
aS'http://irecommend.ru/content/lishnyaya-trata-deneg-24'
p33
aS'http://irecommend.ru/content/nichem-ne-otlichaetsya-ot-utyuga-za-3000-rub'
p34
aS'http://irecommend.ru/content/sravnenie-s-tefalem-stoit-li-ekonomit'
p35
a.