(lp0
S'http://irecommend.ru/content/rabotaet-i-eto-glavnoe'
p1
aS'http://irecommend.ru/content/i-rabotaet-i-rabotaet-foto-moego-zelenogo'
p2
aS'http://irecommend.ru/content/dovolna-108'
p3
aS'http://irecommend.ru/content/polzuemsya-s-udovolstviem-vot-uzhe-neskolko-let'
p4
aS'http://irecommend.ru/content/dlya-molodoi-mamy-v-samyi-raz'
p5
aS'http://irecommend.ru/content/otlichnyi-utyug'
p6
aS'http://irecommend.ru/content/nadezhnyi-utyug'
p7
aS'http://irecommend.ru/content/gladit-s-radostyu'
p8
aS'http://irecommend.ru/content/pochti-otparivatel'
p9
aS'http://irecommend.ru/content/mame-ponravilsya'
p10
aS'http://irecommend.ru/content/utyug-mt-1101-sinii-sapfir'
p11
aS'http://irecommend.ru/content/moi-malenkii-no-moshchnyi-pomoshchnik'
p12
aS'http://irecommend.ru/content/utyug-bosch-khorosh-0'
p13
aS'http://irecommend.ru/content/otparivatel-i-utyug-v-odnom-flakone-idealnoe-glazhene-i-100-bezopasnost-moya-vechnaya-lyubov'
p14
aS'http://irecommend.ru/content/tekhnologichnaya-shtuka'
p15
aS'http://irecommend.ru/content/otlichno-gladit-i-otparivaet'
p16
aS'http://irecommend.ru/content/utyug-braun-texstyle-3-lyublyu-ego-podrobnoe-opisanie-primery-glazhki-i-ego-nebolshoi-minus'
p17
aS'http://irecommend.ru/content/reklamnyi-tryuk-eta-keramicheskaya-podoshva'
p18
aS'http://irecommend.ru/content/ochen-sovremennyi-i-udobnyi-utyug'
p19
aS'http://irecommend.ru/content/otlichnyi-utyug-prevoskhodno-gladit-voda-ne-techet'
p20
aS'http://irecommend.ru/content/otlichnyi-utyug-za-razumnye-dengi'
p21
aS'http://irecommend.ru/content/otlichnoe-sootnoshenie-tseny-i-kachestva-ya-im-dovolna'
p22
aS'http://irecommend.ru/content/shikarnyi-71'
p23
aS'http://irecommend.ru/content/gladit-i-otparivaet-otlichno'
p24
aS'http://irecommend.ru/content/otlichnyi-utyug-dlya-khozyaiki'
p25
aS'http://irecommend.ru/content/obychnyi-ne-dorogoi-utyug'
p26
aS'http://irecommend.ru/content/legkii-kompaktnyi-udobnyi-rasskaz-ot-toi-u-kotoroi-prigorelo-antiprigarnoe-pokrytie-foto'
p27
aS'http://irecommend.ru/content/luchshii-utyug-dlya-menya-utyug-tefal-bez-preuvelicheniya'
p28
aS'http://irecommend.ru/content/utyug-prosto-super-obyazatelno-kupite-ne-pozhaleete'
p29
aS'http://irecommend.ru/content/super-skolzhenie-sobstvennye-ispytaniya'
p30
aS'http://irecommend.ru/content/moi-pervyi-khoroshii-utyug'
p31
aS'http://irecommend.ru/content/utyug-tak-utyug'
p32
aS'http://irecommend.ru/content/sredne-243'
p33
a.